(lp1
S'<!DOCTYPE html>\r\n<html lang="en-US">\r\n    <head>\r\n        <title>The Blog - www.jropinion.com</title>\r\n<meta property="og:site_name" content="SimpleSite.com" />\n<meta property="og:url" content="http://www.jropinion.com/413431355/2433445/posting/" />\n<meta property="og:title" content="Feminists Think They&#39;re So Smart" />\n<meta property="og:description" content="\r\nFeminism has one core claim. There are different strands of Feminism, but the core claim captures the common thread between them all, and anything not sharing in this claim is by definition not Feminism. This\n claim represents the necessary and sufficient conditions for Feminism, without further n..." />\n<meta property="og:updated_time" content="2015-01-10T03:58:52.8042038+01:00" />\n<meta property="og:type" content="blog" />\n<meta charset="utf-8" />\n<meta name="viewport" content="width=device-width, initial-scale=1.0" />\n<meta http-equiv="X-UA-Compatible" content="IE=edge" />\n<meta name="description" content="Do Nothing, Say Nothing - http://www.jropinion.com/" />\n        <link rel="stylesheet" type="text/css" href="http://css.simplesite.com/53/14/5248083.design.v23529.css?h=933cc3965a636c4b66967ddd0827864b81264d535467ba73a916b885ea11533a" />\n<link rel="stylesheet" type="text/css" href="http://fnt.webink.com/wfs/webink.css/?project=74616697-243a-494e-a321-9c22e44e6670&fonts=E02C5D1A-2B75-ECC5-EF75-EF3BACEE068F:f=HypatiaSansPro-Regular,A69132F3-0661-6EF9-A2A8-6D43F9997F5E:f=HypatiaSansPro-Bold,98042022-B66B-076D-ABBE-06E9F61E522D:f=HypatiaSansPro-Semibold,944878BD-C5F0-C538-D8F4-CF8897EAB5D2:f=HypatiaSansPro-It" />\n<link rel="stylesheet" type="text/css" href="http://fnt.webink.com/wfs/webink.css/?project=677ec910-d61b-4777-a341-1dc2ef1550a1&fonts=050FBD0F-5D55-410F-DC57-586D49D25BCB:f=MyriadPro-Semibold,5D32F4C3-5F43-6D25-E355-1EC2DC8821B0:f=AdobeTextPro-Regular,D0B9F19A-8369-993E-C535-D37D27FA179E:f=AdobeTextPro-Bold,73E6C83D-7F13-A8AE-4770-C315AE5061C3:f=MyriadPro-Regular,73FEA18A-033F-AE20-4C65-461CA87E3CF3:f=MyriadPro-It" />\n<link rel="stylesheet" type="text/css" href="http://fnt.webink.com/wfs/webink.css/?project=6d648825-e2d5-4e9a-a2df-7332ea058dfb&fonts=F5870F1F-48F5-36F5-550E-B276AA09225A:f=ProximaNova-RegularIt,58DEFEBD-4A55-477B-3C13-525C6AEBDD7A:f=ProximaNova-Regular" />\n<link rel="stylesheet" type="text/css" href="http://fnt.webink.com/wfs/webink.css/?project=0ff8cc8a-0a5e-465d-aae0-504c928a2cf3&fonts=35EDF0EF-72EE-3C82-E0F5-958AB3CA7E7A:f=CommercialScrT,916E167A-E7A8-0634-4302-DCB4DCCCA4E3:f=AltoPro-Normal,A678D579-2838-835A-221F-78A0CC000825:f=AltoPro-NormalItalic" />\n<link rel="stylesheet" type="text/css" href="http://fnt.webink.com/wfs/webink.css/?project=7325aa7a-e077-48ea-8ab5-65edfa9591be&fonts=D31647F0-6482-EDA5-9C88-B56AB72C33CB:f=Foco-Italic,B93D243F-CF69-F6B8-CE50-42009ECD2905:f=Foco-Regular,D206F14A-D0C5-9ACD-B038-AAA76EDE2D81:f=LuedickitalD-ExtBol" />\n<link rel="stylesheet" type="text/css" href="http://fnt.webink.com/wfs/webink.css/?project=64d4c23b-efa8-4565-b784-381621810230&fonts=050FBD0F-5D55-410F-DC57-586D49D25BCB:f=MyriadPro-Semibold,73FEA18A-033F-AE20-4C65-461CA87E3CF3:f=MyriadPro-It,73E6C83D-7F13-A8AE-4770-C315AE5061C3:f=MyriadPro-Regular,F7BFE656-C078-45C2-FE87-230C4CB9A997:f=MyriadPro-SemiboldIt" />\n<link rel="stylesheet" type="text/css" href="http://fnt.webink.com/wfs/webink.css/?project=8fa451aa-7d44-43da-acd4-ea918a3f36d2&fonts=F5870F1F-48F5-36F5-550E-B276AA09225A:f=ProximaNova-RegularIt,24DA8335-F10B-26D0-B321-E858A52C4445:f=ProximaNovaCond-Black,0E9C6014-E602-8C7E-0D11-28911A17A2E7:f=ProximaNovaExCn-Black,C344819E-7F64-52D2-5903-DE54F5382845:f=ProximaNova-Semibold,58DEFEBD-4A55-477B-3C13-525C6AEBDD7A:f=ProximaNova-Regular" />\n<link rel="canonical" href="http://www.jropinion.com/413431355/2433445/posting/" />\n<link rel="alternate" type="application/rss+xml" href="http://www.jropinion.com/413431355/feed.rss" title="The Blog RSS feed" />\n<link rel="alternate" type="application/atom+xml" href="http://www.jropinion.com/413431355/atomFeed.rss" title="The Blog RSS feed" />\n<link rel="shortcut icon" type="image/x-icon" href="data:image/x-icon;," />\n        <script type="text/javascript" src="/userPages/pages/FrontendAppLocalePage.aspx?CultureKey=en-US"></script>\n                <script type="text/javascript" src="http://css.simplesite.com/c/js/frontendApp.min.js?_v=40665593d628813805a51fa339911ad9"></script>\r\n        <script type="text/javascript">if(typeof window.jQuery=="undefined"){(function(){var a=document.createElement("script");a.type="text/javascript";a.src="/c/js/version3/frontendApp/init/frontendApp.min.js?_v=40665593d628813805a51fa339911ad9";document.getElementsByTagName(\'head\')[0].appendChild(a);})();}</script>\r\n\r\n                <script type="text/javascript">$(function (){if($(\'#css_simplesite_com_fallback\').is(\':visible\') === true) { $(\'<link rel="stylesheet" type="text/css" href="/d/designs/5248083.design.v23529.css" />\').appendTo(\'head\'); } });</script>\r\n    </head>\r\n    <body data-pid="413431355" data-iid="2433445">\r\n        \r\n        \r\n        <div class="container-fluid site-wrapper"> <!-- this is the Sheet -->\r\n            <div class="container-fluid header-wrapper " id="header"> <!-- this is the Header Wrapper -->\r\n    <div class="container">\r\n<div class="title-wrapper">\r\n\t<div class="title-wrapper-inner">\r\n\t    <a class="logo title-only" href="http://www.jropinion.com/">\r\n\t        \r\n\t    </a>\r\n\t    <div class="title title-only">\r\n\t        Do Nothing, Say Nothing\r\n\t    </div>\r\n\t</div>\r\n</div>  <!-- these are the titles -->\r\n<div class="navbar">\r\n    <div class="navbar-inner">\r\n        <div class="container">\r\n            <!-- .btn-navbar is used as the toggle for collapsed navbar content -->\r\n            <a class="btn btn-navbar" data-toggle="collapse" data-target=".nav-collapse" title="Toggle menu">\r\n                <span class="menu-name">Menu</span>\r\n                <span class="menu-bars">\r\n                    <span class="icon-bar"></span>\r\n                    <span class="icon-bar"></span>\r\n                    <span class="icon-bar"></span>\r\n                </span>\r\n            </a>\r\n\r\n\r\n\r\n            <!-- Everything you want hidden at 940px or less, place within here -->\r\n            <div class="nav-collapse collapse">\r\n                <ul class="nav" id="topMenu" data-submenu="horizontal">\r\n<li class="dropdown  ">\r\n    <a href="http://www.jropinion.com/413430561">I think Sometimes</a>\r\n        <a href="#" class="dropdown-toggle" data-toggle="dropdown"><i class="icon-caret-down"></i></a>\r\n        <div class="dropdown-wrapper">\r\n            <ul class="dropdown-menu" role="menu">\r\n                    <li>\r\n                        <a href="http://www.jropinion.com/413431354">Standard page</a>\r\n                    </li>\r\n            </ul>\r\n        </div>\r\n</li><li class=" active ">\r\n    <a href="http://www.jropinion.com/413431355">The Blog</a>\r\n</li>                </ul>\r\n            </div>\r\n        </div>\r\n    </div>\r\n</div>\r\n  <!-- this is the Menu content -->\r\n    </div>\r\n</div>  <!-- this is the Header content -->\r\n\r\n            <div class="container-fluid content-wrapper" id="content"> <!-- this is the Content Wrapper -->\r\n    <div class="container">\r\n        <div class="row-fluid content-inner">\r\n            <div id="left" class="span9"> <!-- ADD "span12" if no sidebar, or "span9" with sidebar -->\r\n                <div class="wrapper blog-post">\r\n                <div class="content">\r\n    <div class="avatar">\r\n        <i class="icon-pencil" title="Feminists Think They&#39;re So Smart"></i>\r\n    </div>\r\n    <div class="blog-post-body section">\r\n        <div class="controls">\r\n    <span class="date-text">Jan. 8, 2015</span>\r\n</div>\r\n<div class="heading">\r\n        <h1 class="page-title">Feminists Think They&#39;re So Smart</h1>\r\n</div>\r\n\r\n<div class="content">\r\n    \r\n    <p dir="ltr"><span style="font-size: 18px;">Feminism has one core claim. There are different strands of Feminism, but the core claim captures the common thread between them all, and anything not sharing in this claim is by definition not Feminism. This\n claim represents the necessary and sufficient conditions for Feminism, without further necessitating how any particular feminist need express his/her beliefs.</span><span style="font-size: 18px;">&nbsp;</span></p> <p dir="ltr"><span style="font-size: 18px;">The\n Core claim of feminism is that&nbsp;<strong>men and women should enjoy the same rights, privileges, and opportunities in a just and preferable society</strong>.&nbsp;One may immediately move to suggest we don&rsquo;t need Feminism because everyone believes\n that already. Well (1) that&rsquo;s not true and (2) even if it were true, women don&rsquo;t currently enjoy the consequences of that belief which is kind of the whole point of the belief. Furthermore, this claim should not be taken to mean that men and women\n should be treated the same. But the differences in treatment should be limited to those necessitated by genetic difference (e.g. the need for different kinds of doctors). Obviously this might suggest to a skeptic that men and women can be treated drastically\n differently as a result of their differing biology. But this idea is counteracted by a common thesis many feminists subscribe to.</span></p> <p dir="ltr">&nbsp;</p> <p dir="ltr"><span style="font-size: 18px;">That thesis can be articulated expediently like\n so:&nbsp;</span><span style="font-size: 18px;"><strong>there are few intrinsic differences between men and women</strong>.</span><span style="font-size: 18px;">&nbsp;This thesis is not meant to suggest there are no intrinsic differences (hello, penises) and\n this claim also doesn&rsquo;t rule out men and women being different as a result of social forces (i.e.&nbsp;you can&rsquo;t reject this claim simply because you observe men and women acting differently). Though I don&rsquo;t intend to argue for this claim\n here, I will say there is good reason to at least consider taking it seriously, since </span><a style="font-size: 18px;" href="http://www.simplesite.com/builder/version3/view/413430632#disabled">humans have very little sexual dimorphism</a><span style="font-size:\n 18px;">&nbsp;compared to other species, a fact that goes against conventional (always read: ungrounded) wisdom.</span></p> <p dir="ltr"><span style="font-size: 18px;">&nbsp;</span></p> <p dir="ltr"><span style="font-size: 18px;">The core claim and the aforementioned\n thesis comprise the backbone of much of what is called Feminism, but there is certainly a lot of divergent thought. This is where I think Feminism loses some of its clout. The lack of a united front suggests weakness to feminist opponents. I, however, find\n this to be a feminist strength, as it shows the theory is investigative and not dogmatic. I do, however, think Feminism has historically dropped the ball on caring for all women. Black and transgender women were both ignored by earlier feminist advocacy initiatives.\n Fortunately, like any good theory, feminism has improved over time and recent waves of Feminism have been more considerate of&nbsp;<a href="http://www.simplesite.com/builder/version3/view/413430632#disabled">intersectionality</a>&nbsp;and global problems (also,\n to people who might say first-world women\'s problems shouldn\'t be our concern because women in other countires are facing more serious problems, I simply wonder who taught you that justice was a zero-sum entity for which only the most intense problems were\n eligible).<br /></span></p> <p dir="ltr"><span style="font-size: 18px;">P.S. I was going to further use this post to explain all the amazing things Feminism has done for my life and the way I relate to women, but I decided against it. Feminism isn&rsquo;t\n about my life. Feminism isn&rsquo;t about me. The reason Feminism exists is because too many things in society are predicated on my convenience. Also, I&rsquo;m not a feminist because of the benefits to myself. I&rsquo;m a feminist, well, because I believe\n men and women should enjoy the same rights, privileges, and opportunities in a just and preferable society. Do you?</span></p>\r\n</div>\r\n\r\n\r\n    </div>\r\n    \r\n    <ul class="pager">\r\n        <li><a href="http://www.jropinion.com/413431355?overview=1">Overview</a></li>\r\n    </ul>\r\n</div>\r\n\r\n                \r\n                </div>\r\n            </div>\r\n            <div id="right" class="span3">\r\n                <div class="sidebar">\r\n            <div class="wrapper share-box">\r\n                <div class="heading">\r\n        <h4>Share this page</h4>\r\n</div>\r\n\r\n                <div class="content">\r\n                    <div class="text-center">\r\n    <i class="icon-spinner icon-spin icon-2x"></i>\r\n</div>\r\n<input id="social_hash" type="hidden" value="b=A53C5F75AB562E22C115AD38F7510DF14E0D8DC"/>\r\n                </div>\r\n            </div>\r\n</div>\r\n            </div>\r\n        </div>        \r\n    </div>\r\n</div>  <!-- the controller has determined which view to be shown in the content -->\r\n\r\n            <div class="container-fluid footer-wrapper" id="footer"> <!-- this is the Footer Wrapper -->\r\n    <div class="container">\r\n        <div class="footer-info">\r\n                            <div class="footer-powered-by">\r\n                    <a href="http://www.simplesite.com/">Created with SimpleSite</a>\r\n                </div>\r\n        </div>\r\n            <div class="footer-page-counter">\r\n                <i class="icon-spin icon-spinner"></i>\r\n            </div>\r\n        <div id="css_simplesite_com_fallback" class="hide"></div>\r\n    </div>\r\n</div>  <!-- this is the Footer content -->\r\n        </div>\r\n        \r\n                \r\n        <input type="hidden" id="anti-forgery-token" value="vFZIp11QDd7w1cZjYdzwVVw3rTHgQi1lpMMqomvLq/qGfx85dADIn6rd+jb5+yvdIjnIKNejlFu6vxL7J8Np5doP9U5Db99HUDj8/Wt65PylgJL/yu3sigTMCgoUeCPbmm0KkS1bELQqft0PfrscwnmAShJd7aXTUYwM5o+vmNCLlHjqSBncSck8BROvQF2ZVMDP8Pq8BHMm4l6lPHD6/2iAbawvaYeO8ZpOFHIbumRC9g5Lp+PJxgLEwHlWuM0Gc3ZLyS4Svl1KZFg1qArCLSaEzUv9Om0fUIKo8sfR6TzGzo56HW9AngA0zS2PJdzO4016ktro0HAODNAme24XeXIkWv4k9O5REi18WfxMC0dtHkA7oM0f0SAnZnku2lJqg2IiZt+7LNW/KaqFH9dLYAKYsY2iSnYXi3RgjyUpAOS//dkHx877jOkIMbdimrKum08h8jW7/Mn0eyQMPkJsBw==" />\r\n        \r\n        \r\n        <script>\r\n    dataLayer = [{"SiteVer":"US","MainOrUser":"UserPage","PreOrFre":"Premium","Language":"en","Culture":"en-US","Instrumentation":"ShowPage","Market":"US"}];\r\n</script>\r\n<!-- Google Tag Manager -->\r\n<noscript><iframe src="//www.googletagmanager.com/ns.html?id=GTM-2MMH"\r\nheight="0" width="0" style="display:none;visibility:hidden"></iframe></noscript>\r\n<script>(function(w,d,s,l,i){{w[l]=w[l]||[];w[l].push({\'gtm.start\':\r\nnew Date().getTime(),event:\'gtm.js\'});var f=d.getElementsByTagName(s)[0],\r\nj=d.createElement(s),dl=l!=\'dataLayer\'?\'&l=\'+l:\'\';j.async=true;j.src=\r\n\'//www.googletagmanager.com/gtm.js?id=\'+i+dl;f.parentNode.insertBefore(j,f);\r\n}})(window,document,\'script\',\'dataLayer\',\'GTM-2MMH\');</script>\r\n<!-- End Google Tag Manager -->\r\n\r\n    </body>\r\n</html>'
p2
aS'<!DOCTYPE html>\r\n<html lang="en-US">\r\n    <head>\r\n        <title>The Blog - www.jropinion.com</title>\r\n<meta property="og:site_name" content="SimpleSite.com" />\n<meta property="og:url" content="http://www.jropinion.com/413431355/2414057/posting/" />\n<meta property="og:title" content="5 Ways to Undercut Racism in 2015" />\n<meta property="og:description" content="\r\nI don\xe2\x80\x99t put much stock into the idea of New Year\xe2\x80\x99s resolutions. I figure, why not change something you don\xe2\x80\x99t like as soon as you\xe2\x80\x99re sure you don\xe2\x80\x99t like it? To me it seems resolutions,\n in general, are just a way to postpone action; this hypothesis thoroughly supported by the Arab-Israeli conflict,..." />\n<meta property="og:updated_time" content="2015-01-10T03:58:53.9619287+01:00" />\n<meta property="og:type" content="blog" />\n<meta charset="utf-8" />\n<meta name="viewport" content="width=device-width, initial-scale=1.0" />\n<meta http-equiv="X-UA-Compatible" content="IE=edge" />\n<meta name="description" content="Do Nothing, Say Nothing - http://www.jropinion.com/" />\n        <link rel="stylesheet" type="text/css" href="http://css.simplesite.com/53/14/5248083.design.v23529.css?h=933cc3965a636c4b66967ddd0827864b81264d535467ba73a916b885ea11533a" />\n<link rel="stylesheet" type="text/css" href="http://fnt.webink.com/wfs/webink.css/?project=74616697-243a-494e-a321-9c22e44e6670&fonts=E02C5D1A-2B75-ECC5-EF75-EF3BACEE068F:f=HypatiaSansPro-Regular,A69132F3-0661-6EF9-A2A8-6D43F9997F5E:f=HypatiaSansPro-Bold,98042022-B66B-076D-ABBE-06E9F61E522D:f=HypatiaSansPro-Semibold,944878BD-C5F0-C538-D8F4-CF8897EAB5D2:f=HypatiaSansPro-It" />\n<link rel="stylesheet" type="text/css" href="http://fnt.webink.com/wfs/webink.css/?project=677ec910-d61b-4777-a341-1dc2ef1550a1&fonts=050FBD0F-5D55-410F-DC57-586D49D25BCB:f=MyriadPro-Semibold,5D32F4C3-5F43-6D25-E355-1EC2DC8821B0:f=AdobeTextPro-Regular,D0B9F19A-8369-993E-C535-D37D27FA179E:f=AdobeTextPro-Bold,73E6C83D-7F13-A8AE-4770-C315AE5061C3:f=MyriadPro-Regular,73FEA18A-033F-AE20-4C65-461CA87E3CF3:f=MyriadPro-It" />\n<link rel="stylesheet" type="text/css" href="http://fnt.webink.com/wfs/webink.css/?project=6d648825-e2d5-4e9a-a2df-7332ea058dfb&fonts=F5870F1F-48F5-36F5-550E-B276AA09225A:f=ProximaNova-RegularIt,58DEFEBD-4A55-477B-3C13-525C6AEBDD7A:f=ProximaNova-Regular" />\n<link rel="stylesheet" type="text/css" href="http://fnt.webink.com/wfs/webink.css/?project=0ff8cc8a-0a5e-465d-aae0-504c928a2cf3&fonts=35EDF0EF-72EE-3C82-E0F5-958AB3CA7E7A:f=CommercialScrT,916E167A-E7A8-0634-4302-DCB4DCCCA4E3:f=AltoPro-Normal,A678D579-2838-835A-221F-78A0CC000825:f=AltoPro-NormalItalic" />\n<link rel="stylesheet" type="text/css" href="http://fnt.webink.com/wfs/webink.css/?project=7325aa7a-e077-48ea-8ab5-65edfa9591be&fonts=D31647F0-6482-EDA5-9C88-B56AB72C33CB:f=Foco-Italic,B93D243F-CF69-F6B8-CE50-42009ECD2905:f=Foco-Regular,D206F14A-D0C5-9ACD-B038-AAA76EDE2D81:f=LuedickitalD-ExtBol" />\n<link rel="stylesheet" type="text/css" href="http://fnt.webink.com/wfs/webink.css/?project=64d4c23b-efa8-4565-b784-381621810230&fonts=050FBD0F-5D55-410F-DC57-586D49D25BCB:f=MyriadPro-Semibold,73FEA18A-033F-AE20-4C65-461CA87E3CF3:f=MyriadPro-It,73E6C83D-7F13-A8AE-4770-C315AE5061C3:f=MyriadPro-Regular,F7BFE656-C078-45C2-FE87-230C4CB9A997:f=MyriadPro-SemiboldIt" />\n<link rel="stylesheet" type="text/css" href="http://fnt.webink.com/wfs/webink.css/?project=8fa451aa-7d44-43da-acd4-ea918a3f36d2&fonts=F5870F1F-48F5-36F5-550E-B276AA09225A:f=ProximaNova-RegularIt,24DA8335-F10B-26D0-B321-E858A52C4445:f=ProximaNovaCond-Black,0E9C6014-E602-8C7E-0D11-28911A17A2E7:f=ProximaNovaExCn-Black,C344819E-7F64-52D2-5903-DE54F5382845:f=ProximaNova-Semibold,58DEFEBD-4A55-477B-3C13-525C6AEBDD7A:f=ProximaNova-Regular" />\n<link rel="canonical" href="http://www.jropinion.com/413431355/2414057/posting/" />\n<link rel="alternate" type="application/rss+xml" href="http://www.jropinion.com/413431355/feed.rss" title="The Blog RSS feed" />\n<link rel="alternate" type="application/atom+xml" href="http://www.jropinion.com/413431355/atomFeed.rss" title="The Blog RSS feed" />\n<link rel="shortcut icon" type="image/x-icon" href="data:image/x-icon;," />\n        <script type="text/javascript" src="/userPages/pages/FrontendAppLocalePage.aspx?CultureKey=en-US"></script>\n                <script type="text/javascript" src="http://css.simplesite.com/c/js/frontendApp.min.js?_v=40665593d628813805a51fa339911ad9"></script>\r\n        <script type="text/javascript">if(typeof window.jQuery=="undefined"){(function(){var a=document.createElement("script");a.type="text/javascript";a.src="/c/js/version3/frontendApp/init/frontendApp.min.js?_v=40665593d628813805a51fa339911ad9";document.getElementsByTagName(\'head\')[0].appendChild(a);})();}</script>\r\n\r\n                <script type="text/javascript">$(function (){if($(\'#css_simplesite_com_fallback\').is(\':visible\') === true) { $(\'<link rel="stylesheet" type="text/css" href="/d/designs/5248083.design.v23529.css" />\').appendTo(\'head\'); } });</script>\r\n    </head>\r\n    <body data-pid="413431355" data-iid="2414057">\r\n        \r\n        \r\n        <div class="container-fluid site-wrapper"> <!-- this is the Sheet -->\r\n            <div class="container-fluid header-wrapper " id="header"> <!-- this is the Header Wrapper -->\r\n    <div class="container">\r\n<div class="title-wrapper">\r\n\t<div class="title-wrapper-inner">\r\n\t    <a class="logo title-only" href="http://www.jropinion.com/">\r\n\t        \r\n\t    </a>\r\n\t    <div class="title title-only">\r\n\t        Do Nothing, Say Nothing\r\n\t    </div>\r\n\t</div>\r\n</div>  <!-- these are the titles -->\r\n<div class="navbar">\r\n    <div class="navbar-inner">\r\n        <div class="container">\r\n            <!-- .btn-navbar is used as the toggle for collapsed navbar content -->\r\n            <a class="btn btn-navbar" data-toggle="collapse" data-target=".nav-collapse" title="Toggle menu">\r\n                <span class="menu-name">Menu</span>\r\n                <span class="menu-bars">\r\n                    <span class="icon-bar"></span>\r\n                    <span class="icon-bar"></span>\r\n                    <span class="icon-bar"></span>\r\n                </span>\r\n            </a>\r\n\r\n\r\n\r\n            <!-- Everything you want hidden at 940px or less, place within here -->\r\n            <div class="nav-collapse collapse">\r\n                <ul class="nav" id="topMenu" data-submenu="horizontal">\r\n<li class="dropdown  ">\r\n    <a href="http://www.jropinion.com/413430561">I think Sometimes</a>\r\n        <a href="#" class="dropdown-toggle" data-toggle="dropdown"><i class="icon-caret-down"></i></a>\r\n        <div class="dropdown-wrapper">\r\n            <ul class="dropdown-menu" role="menu">\r\n                    <li>\r\n                        <a href="http://www.jropinion.com/413431354">Standard page</a>\r\n                    </li>\r\n            </ul>\r\n        </div>\r\n</li><li class=" active ">\r\n    <a href="http://www.jropinion.com/413431355">The Blog</a>\r\n</li>                </ul>\r\n            </div>\r\n        </div>\r\n    </div>\r\n</div>\r\n  <!-- this is the Menu content -->\r\n    </div>\r\n</div>  <!-- this is the Header content -->\r\n\r\n            <div class="container-fluid content-wrapper" id="content"> <!-- this is the Content Wrapper -->\r\n    <div class="container">\r\n        <div class="row-fluid content-inner">\r\n            <div id="left" class="span9"> <!-- ADD "span12" if no sidebar, or "span9" with sidebar -->\r\n                <div class="wrapper blog-post">\r\n                <div class="content">\r\n    <div class="avatar">\r\n        <i class="icon-pencil" title="5 Ways to Undercut Racism in 2015"></i>\r\n    </div>\r\n    <div class="blog-post-body section">\r\n        <div class="controls">\r\n    <span class="date-text">Jan. 1, 2015</span>\r\n</div>\r\n<div class="heading">\r\n        <h1 class="page-title">5 Ways to Undercut Racism in 2015</h1>\r\n</div>\r\n\r\n<div class="content">\r\n    \r\n    <p dir="ltr"><span style="font-size: 18px;">I don&rsquo;t put much stock into the idea of New Year&rsquo;s resolutions. I figure, why not change something you don&rsquo;t like as soon as you&rsquo;re sure you don&rsquo;t like it? To me it seems resolutions,\n in general, are just a way to postpone action; this hypothesis thoroughly supported by the Arab-Israeli conflict, which has seen numerous resolutions, but not much progress. But, I&rsquo;d be foolish to ignore how seriously our society takes New Year&rsquo;s\n resolutions. So, in that spirit, here are five ways we can drastically improve our dialogue about race in 2015.</span></p> <p dir="ltr"><span style="font-size: 24px;"><strong>1.&nbsp;Let&rsquo;s stop making this struggle all about Black men.</strong></span></p>\n <p dir="ltr"><span style="font-size: 18px;">Aiyana Jones, Rekia Boyd, Yvette Smith, Tarika Wilson, Tyisha Miller, and many more women of color have died at the hands of police in very similar fashion to the stories we see on national media. We can&rsquo;t\n continue to remove their stories from our narrative of oppression. Black women, believe it or not, make up roughly fifty percent of all black people. Furthermore, the black woman, perhaps, feels the pressures of institutional racism more heavily than the black\n man, as entrenched poverty, marginalization in the workforce, and single-parenting are problems that black women face at a higher instance than black men. When we ignore black women in our discussions of race, we rob ourselves of a lot of data which provides\n further evidence to support the claim that people in our society are oppressed on the basis of skin color as a function of unjust laws and engrained biases and we also turn our backs on one of society&rsquo;s most vulnerable populations: our mothers, sisters,\n daughters, grandmothers, wives, and close friends. Just saying, let&rsquo;s do this together. (<em>Also, there is nothing more hypocritical than suggesting that it&rsquo;s okay that the black man be a synecdoche for black people because it&rsquo;s how language\n is used and the black woman is implied. If you believe that, then you must also be content with the white person standing as a synecdoche for all people. That is also the traditional way to view things</em>).</span></p> <p dir="ltr"><span style="font-size:\n 24px;"><strong>2.</strong> <strong>Let&rsquo;s stop making the good cop bad cop distinction and acting as if the race of the cop is relevant.</strong></span></p> <p dir="ltr"><span style="font-size: 18px;">It is inconsequential to focus on the race of the\n cop. Whether it be a White cop, a Hispanic cop, or a Black cop, the important thing to consider about the situation is how the way the situation is informed by the historical treatment of blacks in this country juxtaposed, of course, with the drastically different,\n one might say privileged, white experience. The issue at hand is the relationship of authority to black bodies.</span></p> <p dir="ltr"><span style="font-size: 18px;">Hopefully this also helps explain why phrasing the situation in terms of bad cops is ill-advised.\n If the real problem is systemic discrimination and oppression, isolating each episode of police aggression as the actions of one deranged man with a badge undermines any attempt to establish correlations and identify patterns; things very necessary to show\n the institutional nature of the problem, and the likewise institutional nature a solution will have to have. </span></p> <p dir="ltr"><span style="font-size: 18px;">Think about it this way: good cops do their job according to procedure. Stop and Frisk is a\n legal procedure which is purposefully used disproportionately against people of color (indeed, former Mayor Michael Bloomberg wanted more black people stopped and frisked, as 80% of the stops being comprised of 90% innocent black people, wasn&rsquo;t enough).\n Therefore, one might say that good cops disproportionately stop and frisk people of color, a somewhat paradoxical proposition. </span></p> <p dir="ltr"><span style="font-size: 18px;">The laws and procedures are unjust. It doesn&rsquo;t matter if a cop is a\n nice guy who is himself not racist, he has signed up to carry out laws that function to intimidate, marginalize, and oppress people. He may not be a bad person, but he is employed in an institution that carries out the will of a racist, corrupt society.</span></p>\n <p dir="ltr"><span style="font-size: 24px;"><strong>3.&nbsp;</strong><strong>Let&rsquo;s stop making these kinds of arguments: &ldquo;If [unarmed black person] would have been more compliant, [unarmed black person] would still be alive.&rdquo;</strong></span></p>\n <p dir="ltr"><span style="font-size: 18px;">For starters, this line of reasoning is completely untrue. The stories of Sean Bell and Oscar Grant provide ample evidence that compliance does not guarantee survival. Moreover, this argument is rather silly when\n you consider the empirically proven lopsided treatment of black people at the hands of the law and judicial system. Essentially, people who forward this argument are offering a disgusting dichotomy: Give in to oppression or die. Would these people have similarly\n asked the Jews to obey the Nazis to increase their chance of survival? As English Philosopher John Austin reminds us: &ldquo;the existence of law is one thing; its merit or demerit is another.&rdquo; Just because something is legal, doesn&rsquo;t mean it&rsquo;s\n right. It&rsquo;s about time we start looking at the murderer and a little less at the behavior of the person who was murdered. Surely some people do warrant the death penalty, according to our laws (I may have to revisit this whole death penalty thing) but\n all people are owed due process. It&rsquo;s a right so important our constitution promised it twice (i.e in the 5th Amendment and 14th Amendment). Being killed by police does not fall into those parameters. You do support the Constitution, don&rsquo;t you?</span></p>\n <p dir="ltr"><span style="font-size: 24px;"><strong>4.</strong> <strong>Let&rsquo;s put the burden of proof back on the government.</strong></span></p> <p dir="ltr"><span style="font-size: 18px;">The character of the murdered individual is routinely on trial\n when courts and juries are attempting to decide what kind of legal repercussions are to be levied against cops and other governmental actors that carry out injustices on people of color. But my understanding of our judicial system is that we assume individuals\n are innocent until they are proven guilty. If that is the case, then a murdered individual should be assumed to be wrongly killed unless the officer can prove he was acting reasonably. Surely the conduct of the murdered individual is relevant exculpatory evidence.\n But the evidence matters at trial. So, let&rsquo;s start having trials for cops. At which time they can prove their innocence. But we can&rsquo;t keep assuming the cop acted reasonably and the murdered person deserved to be killed. It&rsquo;s this current\n way of dealing with these situations which liberates cops to use deadly force more frequently and with less hesitation. One obvious institutional change to decrease the number of unarmed people murdered by cops, a crime disproportionately happening to people\n of color, is to punish that behavior with more than paid vacations.</span></p> <p dir="ltr"><span style="font-size: 24px;"><strong>5. Let&rsquo;s remember that we&rsquo;re not talking about disembodied statistics; we&rsquo;re talking about people.</strong></span></p>\n <p dir="ltr"><span style="font-size: 18px;">The breadth of the influence of institutional racism is quite large. These phenomena affect so many people it&rsquo;s easy to forget that at the end of the day we&rsquo;re talking about individual people with lives,\n families, hopes, fears, and futures. As we go further and further down the rabbithole of statistics, let&rsquo;s not forget that fact. Whether or not you&rsquo;re skeptical of the accounts of racial politics commonly promulgated, people are dying. People are\n being denied access to promised rights and necessary goods. People are spending their entire lives without hope. This is unacceptable</span></p> <p><span style="font-size: 18px;"><br />P. S. Good luck with your new diets, personality changes, workout plans,\n and goals for the New Year. I hope that you will at least consider also adopting these changes; I hope that you will also start pledging your effort to things that matter!</span></p>\r\n</div>\r\n\r\n\r\n    </div>\r\n    \r\n    <ul class="pager">\r\n        <li><a href="http://www.jropinion.com/413431355?overview=1">Overview</a></li>\r\n    </ul>\r\n</div>\r\n\r\n                \r\n                </div>\r\n            </div>\r\n            <div id="right" class="span3">\r\n                <div class="sidebar">\r\n            <div class="wrapper share-box">\r\n                <div class="heading">\r\n        <h4>Share this page</h4>\r\n</div>\r\n\r\n                <div class="content">\r\n                    <div class="text-center">\r\n    <i class="icon-spinner icon-spin icon-2x"></i>\r\n</div>\r\n<input id="social_hash" type="hidden" value="b=A53C5F75AB562E22C115AD38F7510DF14E0D8DC"/>\r\n                </div>\r\n            </div>\r\n</div>\r\n            </div>\r\n        </div>        \r\n    </div>\r\n</div>  <!-- the controller has determined which view to be shown in the content -->\r\n\r\n            <div class="container-fluid footer-wrapper" id="footer"> <!-- this is the Footer Wrapper -->\r\n    <div class="container">\r\n        <div class="footer-info">\r\n                            <div class="footer-powered-by">\r\n                    <a href="http://www.simplesite.com/">Created with SimpleSite</a>\r\n                </div>\r\n        </div>\r\n            <div class="footer-page-counter">\r\n                <i class="icon-spin icon-spinner"></i>\r\n            </div>\r\n        <div id="css_simplesite_com_fallback" class="hide"></div>\r\n    </div>\r\n</div>  <!-- this is the Footer content -->\r\n        </div>\r\n        \r\n                \r\n        <input type="hidden" id="anti-forgery-token" value="vFZIp11QDd7w1cZjYdzwVVw3rTHgQi1lpMMqomvLq/qGfx85dADIn6rd+jb5+yvdIjnIKNejlFu6vxL7J8Np5doP9U5Db99HUDj8/Wt65PylgJL/yu3sigTMCgoUeCPbmm0KkS1bELQqft0PfrscwnmAShJd7aXTUYwM5o+vmNCLlHjqSBncSck8BROvQF2ZVMDP8Pq8BHMm4l6lPHD6/2iAbawvaYeO8ZpOFHIbumRC9g5Lp+PJxgLEwHlWuM0Gc3ZLyS4Svl1KZFg1qArCLSaEzUv9Om0fUIKo8sfR6TzGzo56HW9AngA0zS2PJdzO4016ktro0HAODNAme24XeXIkWv4k9O5REi18WfxMC0dtHkA7oM0f0SAnZnku2lJqg2IiZt+7LNW/KaqFH9dLYDCe6UPIO3QTjAjF52yD7Fxowha6fTBFrp3tmeD3nkWlnJY+SvMaIGe7lP5mpYk6xg==" />\r\n        \r\n        \r\n        <script>\r\n    dataLayer = [{"SiteVer":"US","MainOrUser":"UserPage","PreOrFre":"Premium","Language":"en","Culture":"en-US","Instrumentation":"ShowPage","Market":"US"}];\r\n</script>\r\n<!-- Google Tag Manager -->\r\n<noscript><iframe src="//www.googletagmanager.com/ns.html?id=GTM-2MMH"\r\nheight="0" width="0" style="display:none;visibility:hidden"></iframe></noscript>\r\n<script>(function(w,d,s,l,i){{w[l]=w[l]||[];w[l].push({\'gtm.start\':\r\nnew Date().getTime(),event:\'gtm.js\'});var f=d.getElementsByTagName(s)[0],\r\nj=d.createElement(s),dl=l!=\'dataLayer\'?\'&l=\'+l:\'\';j.async=true;j.src=\r\n\'//www.googletagmanager.com/gtm.js?id=\'+i+dl;f.parentNode.insertBefore(j,f);\r\n}})(window,document,\'script\',\'dataLayer\',\'GTM-2MMH\');</script>\r\n<!-- End Google Tag Manager -->\r\n\r\n    </body>\r\n</html>'
p3
aS'<!DOCTYPE html>\r\n<html lang="en-US">\r\n    <head>\r\n        <title>The Blog - www.jropinion.com</title>\r\n<meta property="og:site_name" content="SimpleSite.com" />\n<meta property="og:url" content="http://www.jropinion.com/413431355/2396716/posting/" />\n<meta property="og:title" content="A Letter to Liberals" />\n<meta property="og:description" content="\r\nBeing a liberal puts a unique burden on a person to be particularly excellent when conveying ideas, exceptionally persistent in promoting those ideas, and painfully patient in waiting for change (not passive but just near immune to frustration).\n Why? Liberals challenge the status quo. We see soci..." />\n<meta property="og:updated_time" content="2015-01-10T03:58:54.1146122+01:00" />\n<meta property="og:type" content="blog" />\n<meta charset="utf-8" />\n<meta name="viewport" content="width=device-width, initial-scale=1.0" />\n<meta http-equiv="X-UA-Compatible" content="IE=edge" />\n<meta name="description" content="Do Nothing, Say Nothing - http://www.jropinion.com/" />\n        <link rel="stylesheet" type="text/css" href="http://css.simplesite.com/53/14/5248083.design.v23529.css?h=933cc3965a636c4b66967ddd0827864b81264d535467ba73a916b885ea11533a" />\n<link rel="stylesheet" type="text/css" href="http://fnt.webink.com/wfs/webink.css/?project=74616697-243a-494e-a321-9c22e44e6670&fonts=E02C5D1A-2B75-ECC5-EF75-EF3BACEE068F:f=HypatiaSansPro-Regular,A69132F3-0661-6EF9-A2A8-6D43F9997F5E:f=HypatiaSansPro-Bold,98042022-B66B-076D-ABBE-06E9F61E522D:f=HypatiaSansPro-Semibold,944878BD-C5F0-C538-D8F4-CF8897EAB5D2:f=HypatiaSansPro-It" />\n<link rel="stylesheet" type="text/css" href="http://fnt.webink.com/wfs/webink.css/?project=677ec910-d61b-4777-a341-1dc2ef1550a1&fonts=050FBD0F-5D55-410F-DC57-586D49D25BCB:f=MyriadPro-Semibold,5D32F4C3-5F43-6D25-E355-1EC2DC8821B0:f=AdobeTextPro-Regular,D0B9F19A-8369-993E-C535-D37D27FA179E:f=AdobeTextPro-Bold,73E6C83D-7F13-A8AE-4770-C315AE5061C3:f=MyriadPro-Regular,73FEA18A-033F-AE20-4C65-461CA87E3CF3:f=MyriadPro-It" />\n<link rel="stylesheet" type="text/css" href="http://fnt.webink.com/wfs/webink.css/?project=6d648825-e2d5-4e9a-a2df-7332ea058dfb&fonts=F5870F1F-48F5-36F5-550E-B276AA09225A:f=ProximaNova-RegularIt,58DEFEBD-4A55-477B-3C13-525C6AEBDD7A:f=ProximaNova-Regular" />\n<link rel="stylesheet" type="text/css" href="http://fnt.webink.com/wfs/webink.css/?project=0ff8cc8a-0a5e-465d-aae0-504c928a2cf3&fonts=35EDF0EF-72EE-3C82-E0F5-958AB3CA7E7A:f=CommercialScrT,916E167A-E7A8-0634-4302-DCB4DCCCA4E3:f=AltoPro-Normal,A678D579-2838-835A-221F-78A0CC000825:f=AltoPro-NormalItalic" />\n<link rel="stylesheet" type="text/css" href="http://fnt.webink.com/wfs/webink.css/?project=7325aa7a-e077-48ea-8ab5-65edfa9591be&fonts=D31647F0-6482-EDA5-9C88-B56AB72C33CB:f=Foco-Italic,B93D243F-CF69-F6B8-CE50-42009ECD2905:f=Foco-Regular,D206F14A-D0C5-9ACD-B038-AAA76EDE2D81:f=LuedickitalD-ExtBol" />\n<link rel="stylesheet" type="text/css" href="http://fnt.webink.com/wfs/webink.css/?project=64d4c23b-efa8-4565-b784-381621810230&fonts=050FBD0F-5D55-410F-DC57-586D49D25BCB:f=MyriadPro-Semibold,73FEA18A-033F-AE20-4C65-461CA87E3CF3:f=MyriadPro-It,73E6C83D-7F13-A8AE-4770-C315AE5061C3:f=MyriadPro-Regular,F7BFE656-C078-45C2-FE87-230C4CB9A997:f=MyriadPro-SemiboldIt" />\n<link rel="stylesheet" type="text/css" href="http://fnt.webink.com/wfs/webink.css/?project=8fa451aa-7d44-43da-acd4-ea918a3f36d2&fonts=F5870F1F-48F5-36F5-550E-B276AA09225A:f=ProximaNova-RegularIt,24DA8335-F10B-26D0-B321-E858A52C4445:f=ProximaNovaCond-Black,0E9C6014-E602-8C7E-0D11-28911A17A2E7:f=ProximaNovaExCn-Black,C344819E-7F64-52D2-5903-DE54F5382845:f=ProximaNova-Semibold,58DEFEBD-4A55-477B-3C13-525C6AEBDD7A:f=ProximaNova-Regular" />\n<link rel="canonical" href="http://www.jropinion.com/413431355/2396716/posting/" />\n<link rel="alternate" type="application/rss+xml" href="http://www.jropinion.com/413431355/feed.rss" title="The Blog RSS feed" />\n<link rel="alternate" type="application/atom+xml" href="http://www.jropinion.com/413431355/atomFeed.rss" title="The Blog RSS feed" />\n<link rel="shortcut icon" type="image/x-icon" href="data:image/x-icon;," />\n        <script type="text/javascript" src="/userPages/pages/FrontendAppLocalePage.aspx?CultureKey=en-US"></script>\n                <script type="text/javascript" src="http://css.simplesite.com/c/js/frontendApp.min.js?_v=40665593d628813805a51fa339911ad9"></script>\r\n        <script type="text/javascript">if(typeof window.jQuery=="undefined"){(function(){var a=document.createElement("script");a.type="text/javascript";a.src="/c/js/version3/frontendApp/init/frontendApp.min.js?_v=40665593d628813805a51fa339911ad9";document.getElementsByTagName(\'head\')[0].appendChild(a);})();}</script>\r\n\r\n                <script type="text/javascript">$(function (){if($(\'#css_simplesite_com_fallback\').is(\':visible\') === true) { $(\'<link rel="stylesheet" type="text/css" href="/d/designs/5248083.design.v23529.css" />\').appendTo(\'head\'); } });</script>\r\n    </head>\r\n    <body data-pid="413431355" data-iid="2396716">\r\n        \r\n        \r\n        <div class="container-fluid site-wrapper"> <!-- this is the Sheet -->\r\n            <div class="container-fluid header-wrapper " id="header"> <!-- this is the Header Wrapper -->\r\n    <div class="container">\r\n<div class="title-wrapper">\r\n\t<div class="title-wrapper-inner">\r\n\t    <a class="logo title-only" href="http://www.jropinion.com/">\r\n\t        \r\n\t    </a>\r\n\t    <div class="title title-only">\r\n\t        Do Nothing, Say Nothing\r\n\t    </div>\r\n\t</div>\r\n</div>  <!-- these are the titles -->\r\n<div class="navbar">\r\n    <div class="navbar-inner">\r\n        <div class="container">\r\n            <!-- .btn-navbar is used as the toggle for collapsed navbar content -->\r\n            <a class="btn btn-navbar" data-toggle="collapse" data-target=".nav-collapse" title="Toggle menu">\r\n                <span class="menu-name">Menu</span>\r\n                <span class="menu-bars">\r\n                    <span class="icon-bar"></span>\r\n                    <span class="icon-bar"></span>\r\n                    <span class="icon-bar"></span>\r\n                </span>\r\n            </a>\r\n\r\n\r\n\r\n            <!-- Everything you want hidden at 940px or less, place within here -->\r\n            <div class="nav-collapse collapse">\r\n                <ul class="nav" id="topMenu" data-submenu="horizontal">\r\n<li class="dropdown  ">\r\n    <a href="http://www.jropinion.com/413430561">I think Sometimes</a>\r\n        <a href="#" class="dropdown-toggle" data-toggle="dropdown"><i class="icon-caret-down"></i></a>\r\n        <div class="dropdown-wrapper">\r\n            <ul class="dropdown-menu" role="menu">\r\n                    <li>\r\n                        <a href="http://www.jropinion.com/413431354">Standard page</a>\r\n                    </li>\r\n            </ul>\r\n        </div>\r\n</li><li class=" active ">\r\n    <a href="http://www.jropinion.com/413431355">The Blog</a>\r\n</li>                </ul>\r\n            </div>\r\n        </div>\r\n    </div>\r\n</div>\r\n  <!-- this is the Menu content -->\r\n    </div>\r\n</div>  <!-- this is the Header content -->\r\n\r\n            <div class="container-fluid content-wrapper" id="content"> <!-- this is the Content Wrapper -->\r\n    <div class="container">\r\n        <div class="row-fluid content-inner">\r\n            <div id="left" class="span9"> <!-- ADD "span12" if no sidebar, or "span9" with sidebar -->\r\n                <div class="wrapper blog-post">\r\n                <div class="content">\r\n    <div class="avatar">\r\n        <i class="icon-pencil" title="A Letter to Liberals"></i>\r\n    </div>\r\n    <div class="blog-post-body section">\r\n        <div class="controls">\r\n    <span class="date-text">Dec. 24, 2014</span>\r\n</div>\r\n<div class="heading">\r\n        <h1 class="page-title">A Letter to Liberals</h1>\r\n</div>\r\n\r\n<div class="content">\r\n    \r\n    <p dir="ltr"><span>Being a liberal puts a unique burden on a person to be particularly excellent when conveying ideas, exceptionally persistent in promoting those ideas, and painfully patient in waiting for change (not passive but just near immune to frustration).\n Why? Liberals challenge the status quo. We see society as it is and ask if it can be better. We refuse to accept the tired excuse: &ldquo;things have always been this way" and ask if things should be different - in part because we know few things have always\n been any particular way. We take humanity seriously: ALL OF HUMANITY. But the thing is, the status quo in any arena is so damn comfortable, and very often changing it requires getting people to buy into a vision they may not support; a future they may not\n want. Sometimes change mandates sacrificing long enjoyed luxuries and privileges so that some stranger whom one will never meet can live a better life. </span></p> <p dir="ltr"><span>That\'s a hard sell. And it\'s an even harder sell if we get lost in dogma;\n if we allow ourselves to get caught up in catchphrases (e.g. victim-blaming, respectability politics, etc.) without explaining the significance and relevance of those concepts; if we resort to name-calling instead of argumentation. Don\'t call them racists,\n show them their racism. Don\'t call them sexists, show them their sexism. Don\'t call them idiots, show them the fallacies they rely on. After all, a central tenet of liberal social commentary is that there are complicated and insidious mechanisms at work (e.g.\n racism is now a matter of how our social institutions function in a way that marginalizes and oppresses groups of people in a way predictable by skin color and historical position and not simply limited to animus and blatant discrimination). To me that suggests\n that an understanding of these mechanisms is not readily accessible to all people. We cannot immediately develop contempt for those who are ignorant.</span></p> <p dir="ltr"><span>As a liberal, you are also responsible for truly understanding the pathology\n of a conservative. One might want to assert that conservatives have the same responsibility, but I don\'t think so, primarily because most conservatives support doing nothing (i.e. keeping society relatively consistent in its workings) and to do that they don&rsquo;t\n need a very good arsenal. </span></p> <p dir="ltr"><span>There are two kinds of conservatives. There are subsets of these kinds, but two primary camps. The first kind of conservative is thoroughly cynical. They have a bleak understanding of human nature. They\n also majoritarily subscribe to a kind of pragmatism. Essentially, they believe that society currently may not be perfect, but it is functional, reasonable, and stable. Change and reform threaten that stability. These conservatives worry pursuing the &ldquo;greater\n good&rdquo; may undermine the working society we have now, potentially resulting in chaos. Convince this kind of conservative of the necessity or utility of any reform requires showing the conservative that the aspect of the World we look to change is currently\n not functional, reasonable, or stable or that the reform we hope to implement would ONLY improve the functionality, reasonableness, or stability of that aspect of society, or both. Sometimes change requires simply putting their fears to rest (e.g. letting\n gays marry won&rsquo;t lead to a proliferation in beastiality). </span></p> <p dir="ltr"><span>The second kind of &nbsp;conservative is dogmatic. This conservative may not believe society is perfect but she assumes that some force (e.g. God, the Market, etc.)\n will ultimately yield the best result or provide the best reference for action. Persuading this kind of conservative of anything is particularly hard since their approach to politics is admittedly not logical. To convince this kind of conservative of anything\n you have to show them that the potential social and legal changes you endorse are not inconsistent with their beliefs or show them the force they believe will do everything has so far not done a great job of handling things. Engaging the validity of the force\n they believe in is often an immediate conversation ender so try to focus on the consequences of their belief and not the substance (e.g. &lsquo;God doesn&rsquo;t want&rsquo; that isn&rsquo;t a reliable way to dictate our behavior so perhaps we shouldn&rsquo;t\n make it the litmus test for a woman&rsquo;s reproductive choices v.s. God is not real, go fuck yourself: one approach is a lot more conducive to progress than the other). </span></p> <p dir="ltr"><span>It might even be helpful to think of conservatives on\n a spectrum or graph that plots dogmatism and cynicality.</span></p> <p dir="ltr"><span>Liberals also need to keep each other honest. Just because a reform or a change or a critique claims to service some discrete and insular entity does not grant it immunity\n from scrutiny. Weeding out the dogma is important for liberals. All our positions need to be coherent and tenable. Any misstep provides justification in the minds of skeptics for them to dismiss our entire platform. For that reason we must be thorough in our\n criticism of ourselves and willing to push each other toward perfection. I find that liberals quickly retreat into pathological argumentation, asserting how nice or kind or good something would be. But conservative pathology isn&rsquo;t responsive to that.\n More importantly, emotional reasoning is often biased, flawed, and unreliable. We need to rely almost entirely on empirical reasoning and logical deduction even when fueled by sentimental concerns.</span></p> <p dir="ltr"><span>Lastly, liberality requires\n that one never fall in love with one means for achieving a goal. Becoming enamored with any one outcome or approach is dangerous. The primary goal of Liberal thought is to create a fair, inclusive society which enables every individual to have a realistic\n opportunity to achieve self-actualization. Pledging allegiance to any particular instrument of achieving that goal at the expense of the goal itself moves you from the category of liberal to fanatic. If that is your prerogative, please pursue it to your heart&rsquo;s\n content. Just don&rsquo;t do it under the banner of liberal; even if you resemble one.</span></p> <p dir="ltr"><span>I yearn for a time when liberals will be taken seriously again. That day will only come if we stop whining and start taking ourselves seriously.\n That starts with recommitting ourselves to argumentation.</span></p> <p><span><span>Side note: I do think conservatives serve an important role in society. Where liberals push the boundaries, conservatives keep us safe from ourselves. The human imagination\n is incredible. But it is also fleeting and unreliable. If we ran with all of its crazy inventions we might indeed find ourselves in a chaotic situation. For that reason, we need practicality. Many wise conservatives provide exactly that. Democracy, after all,\n is a balancing act.</span></span></p>\r\n</div>\r\n\r\n\r\n    </div>\r\n    \r\n    <ul class="pager">\r\n        <li><a href="http://www.jropinion.com/413431355?overview=1">Overview</a></li>\r\n    </ul>\r\n</div>\r\n\r\n                \r\n                </div>\r\n            </div>\r\n            <div id="right" class="span3">\r\n                <div class="sidebar">\r\n            <div class="wrapper share-box">\r\n                <div class="heading">\r\n        <h4>Share this page</h4>\r\n</div>\r\n\r\n                <div class="content">\r\n                    <div class="text-center">\r\n    <i class="icon-spinner icon-spin icon-2x"></i>\r\n</div>\r\n<input id="social_hash" type="hidden" value="b=A53C5F75AB562E22C115AD38F7510DF14E0D8DC"/>\r\n                </div>\r\n            </div>\r\n</div>\r\n            </div>\r\n        </div>        \r\n    </div>\r\n</div>  <!-- the controller has determined which view to be shown in the content -->\r\n\r\n            <div class="container-fluid footer-wrapper" id="footer"> <!-- this is the Footer Wrapper -->\r\n    <div class="container">\r\n        <div class="footer-info">\r\n                            <div class="footer-powered-by">\r\n                    <a href="http://www.simplesite.com/">Created with SimpleSite</a>\r\n                </div>\r\n        </div>\r\n            <div class="footer-page-counter">\r\n                <i class="icon-spin icon-spinner"></i>\r\n            </div>\r\n        <div id="css_simplesite_com_fallback" class="hide"></div>\r\n    </div>\r\n</div>  <!-- this is the Footer content -->\r\n        </div>\r\n        \r\n                \r\n        <input type="hidden" id="anti-forgery-token" value="vFZIp11QDd7w1cZjYdzwVVw3rTHgQi1lpMMqomvLq/qGfx85dADIn6rd+jb5+yvdIjnIKNejlFu6vxL7J8Np5doP9U5Db99HUDj8/Wt65PylgJL/yu3sigTMCgoUeCPbmm0KkS1bELQqft0PfrscwnmAShJd7aXTUYwM5o+vmNCLlHjqSBncSck8BROvQF2ZVMDP8Pq8BHMm4l6lPHD6/2iAbawvaYeO8ZpOFHIbumRC9g5Lp+PJxgLEwHlWuM0Gc3ZLyS4Svl1KZFg1qArCLSaEzUv9Om0fUIKo8sfR6TzGzo56HW9AngA0zS2PJdzO4016ktro0HAODNAme24XeXIkWv4k9O5REi18WfxMC0dtHkA7oM0f0SAnZnku2lJqg2IiZt+7LNW/KaqFH9dLYF5EsJ0rT843u1ByR7de+wqgdEMHoNxfN+zO1bjFpoh+kgwXCDhOGRu5vXy0sdNXOA==" />\r\n        \r\n        \r\n        <script>\r\n    dataLayer = [{"SiteVer":"US","MainOrUser":"UserPage","PreOrFre":"Premium","Language":"en","Culture":"en-US","Instrumentation":"ShowPage","Market":"US"}];\r\n</script>\r\n<!-- Google Tag Manager -->\r\n<noscript><iframe src="//www.googletagmanager.com/ns.html?id=GTM-2MMH"\r\nheight="0" width="0" style="display:none;visibility:hidden"></iframe></noscript>\r\n<script>(function(w,d,s,l,i){{w[l]=w[l]||[];w[l].push({\'gtm.start\':\r\nnew Date().getTime(),event:\'gtm.js\'});var f=d.getElementsByTagName(s)[0],\r\nj=d.createElement(s),dl=l!=\'dataLayer\'?\'&l=\'+l:\'\';j.async=true;j.src=\r\n\'//www.googletagmanager.com/gtm.js?id=\'+i+dl;f.parentNode.insertBefore(j,f);\r\n}})(window,document,\'script\',\'dataLayer\',\'GTM-2MMH\');</script>\r\n<!-- End Google Tag Manager -->\r\n\r\n    </body>\r\n</html>'
p4
a.